target datalayout = "e-m:e-p270:32:32-p271:32:32-p272:64:64-i64:64-i128:128-f80:128-n8:16:32:64-S128"
target triple = "x86_64-pc-linux-gnu"

@e2ap_handle = internal global ptr null, align 8
@.str.3 = private unnamed_addr constant [9 x i8] c"e2ap.ies\00", align 1
@proto_e2ap = internal global i32 0, align 4
@.str.4 = private unnamed_addr constant [15 x i8] c"e2ap.proc.imsg\00", align 1
@.str.5 = private unnamed_addr constant [15 x i8] c"e2ap.proc.sout\00", align 1
@.str.6 = private unnamed_addr constant [15 x i8] c"e2ap.proc.uout\00", align 1
@.str.50 = private unnamed_addr constant [5 x i8] c"e2ap\00", align 1
@.str.51 = private unnamed_addr constant [5 x i8] c"E2AP\00", align 1
@.str.1854 = private unnamed_addr constant [24 x i8] c"E2 Application Protocol\00", align 1
@.str.1855 = private unnamed_addr constant [18 x i8] c"E2AP-PROTOCOL-IES\00", align 1
@e2ap_ies_dissector_table = internal global ptr null, align 8
@.str.1856 = private unnamed_addr constant [15 x i8] c"e2ap.extension\00", align 1
@.str.1857 = private unnamed_addr constant [24 x i8] c"E2AP-PROTOCOL-EXTENSION\00", align 1
@e2ap_extension_dissector_table = internal global ptr null, align 8
@.str.1858 = private unnamed_addr constant [44 x i8] c"E2AP-ELEMENTARY-PROCEDURE InitiatingMessage\00", align 1
@e2ap_proc_imsg_dissector_table = internal global ptr null, align 8
@.str.1859 = private unnamed_addr constant [44 x i8] c"E2AP-ELEMENTARY-PROCEDURE SuccessfulOutcome\00", align 1
@e2ap_proc_sout_dissector_table = internal global ptr null, align 8
@.str.1860 = private unnamed_addr constant [46 x i8] c"E2AP-ELEMENTARY-PROCEDURE UnsuccessfulOutcome\00", align 1
@e2ap_proc_uout_dissector_table = internal global ptr null, align 8
@.str.1861 = private unnamed_addr constant [16 x i8] c"e2ap.n2_ie_type\00", align 1
@.str.1862 = private unnamed_addr constant [16 x i8] c"E2AP N2 IE Type\00", align 1
@e2ap_n2_ie_type_dissector_table = internal global ptr null, align 8
@.str.1867 = private unnamed_addr constant [25 x i8] c"rc_manual_version_choice\00", align 1
@.str.1868 = private unnamed_addr constant [46 x i8] c"Manual choice of RC dissector version to call\00", align 1
@.str.1869 = private unnamed_addr constant [113 x i8] c"Set version of RC dissector to use for that RANFunction. Unfortunately, so far all OIDs say they are version 1..\00", align 1
@e2ap_rc_version_pref_choice = internal global i32 3, align 4
@e2ap_tap = internal global i32 0, align 4

; Function Attrs: null_pointer_is_valid sspstrong uwtable
define hidden void @proto_register_e2ap() #2 {
  %1 = alloca ptr, align 8
  %2 = alloca ptr, align 8
  call void @llvm.lifetime.start.p0(i64 8, ptr %1) #10
  %3 = call i32 @proto_register_protocol(ptr noundef @.str.1854, ptr noundef @.str.51, ptr noundef @.str.50)
  store i32 %3, ptr @proto_e2ap, align 4
  %4 = load i32, ptr @proto_e2ap, align 4
  call void @proto_register_field_array(i32 noundef %4, ptr noundef @proto_register_e2ap.hf, i32 noundef 853)
  call void @proto_register_subtree_array(ptr noundef @proto_register_e2ap.ett, i32 noundef 506)
  %5 = load i32, ptr @proto_e2ap, align 4
  %6 = call ptr @register_dissector(ptr noundef @.str.50, ptr noundef @dissect_e2ap, i32 noundef %5)
  store ptr %6, ptr @e2ap_handle, align 8
  call void @llvm.lifetime.start.p0(i64 8, ptr %2) #10
  %7 = load i32, ptr @proto_e2ap, align 4
  %8 = call ptr @expert_register_protocol(i32 noundef %7)
  store ptr %8, ptr %1, align 8
  %9 = load ptr, ptr %1, align 8
  call void @expert_register_field_array(ptr noundef %9, ptr noundef @proto_register_e2ap.ei, i32 noundef 4)
  %10 = load i32, ptr @proto_e2ap, align 4
  %11 = call ptr @register_dissector_table(ptr noundef @.str.3, ptr noundef @.str.1855, i32 noundef %10, i32 noundef 7, i32 noundef 1)
  store ptr %11, ptr @e2ap_ies_dissector_table, align 8
  %12 = load i32, ptr @proto_e2ap, align 4
  %13 = call ptr @register_dissector_table(ptr noundef @.str.1856, ptr noundef @.str.1857, i32 noundef %12, i32 noundef 7, i32 noundef 1)
  store ptr %13, ptr @e2ap_extension_dissector_table, align 8
  %14 = load i32, ptr @proto_e2ap, align 4
  %15 = call ptr @register_dissector_table(ptr noundef @.str.4, ptr noundef @.str.1858, i32 noundef %14, i32 noundef 7, i32 noundef 1)
  store ptr %15, ptr @e2ap_proc_imsg_dissector_table, align 8
  %16 = load i32, ptr @proto_e2ap, align 4
  %17 = call ptr @register_dissector_table(ptr noundef @.str.5, ptr noundef @.str.1859, i32 noundef %16, i32 noundef 7, i32 noundef 1)
  store ptr %17, ptr @e2ap_proc_sout_dissector_table, align 8
  %18 = load i32, ptr @proto_e2ap, align 4
  %19 = call ptr @register_dissector_table(ptr noundef @.str.6, ptr noundef @.str.1860, i32 noundef %18, i32 noundef 7, i32 noundef 1)
  store ptr %19, ptr @e2ap_proc_uout_dissector_table, align 8
  %20 = load i32, ptr @proto_e2ap, align 4
  %21 = call ptr @register_dissector_table(ptr noundef @.str.1861, ptr noundef @.str.1862, i32 noundef %20, i32 noundef 26, i32 noundef 0)
  store ptr %21, ptr @e2ap_n2_ie_type_dissector_table, align 8
  %22 = load i32, ptr @proto_e2ap, align 4
  %23 = call ptr @prefs_register_protocol(i32 noundef %22, ptr noundef null)
  store ptr %23, ptr %2, align 8
  %24 = load ptr, ptr %2, align 8
  call void @prefs_register_enum_preference(ptr noundef %24, ptr noundef @.str.1867, ptr noundef @.str.1868, ptr noundef @.str.1869, ptr noundef @e2ap_rc_version_pref_choice, ptr noundef @proto_register_e2ap.rc_version_vals, i1 noundef zeroext true)
  call void @register_init_routine(ptr noundef @e2ap_init_protocol)
  %25 = call i32 @register_tap(ptr noundef @.str.50)
  store i32 %25, ptr @e2ap_tap, align 4
  call void @llvm.lifetime.end.p0(i64 8, ptr %2) #10
  call void @llvm.lifetime.end.p0(i64 8, ptr %1) #10
  ret void
}