; Function Attrs: null_pointer_is_valid sspstrong uwtable
define hidden void @proto_register_e2ap() local_unnamed_addr #2 {
  %1 = tail call i32 @proto_register_protocol(ptr noundef nonnull @.str.1854, ptr noundef nonnull @.str.51, ptr noundef nonnull @.str.50)
  store i32 %1, ptr @proto_e2ap, align 4
  tail call void @proto_register_field_array(i32 noundef %1, ptr noundef nonnull @proto_register_e2ap.hf, i32 noundef 853)
  tail call void @proto_register_subtree_array(ptr noundef nonnull @proto_register_e2ap.ett, i32 noundef 506)
  %2 = load i32, ptr @proto_e2ap, align 4
  %3 = tail call ptr @register_dissector(ptr noundef nonnull @.str.50, ptr noundef nonnull @dissect_e2ap, i32 noundef %2)
  store ptr %3, ptr @e2ap_handle, align 8
  %4 = load i32, ptr @proto_e2ap, align 4
  %5 = tail call ptr @expert_register_protocol(i32 noundef %4)
  tail call void @expert_register_field_array(ptr noundef %5, ptr noundef nonnull @proto_register_e2ap.ei, i32 noundef 4)
  %6 = load i32, ptr @proto_e2ap, align 4
  %7 = tail call ptr @register_dissector_table(ptr noundef nonnull @.str.3, ptr noundef nonnull @.str.1855, i32 noundef %6, i32 noundef 7, i32 noundef 1)
  store ptr %7, ptr @e2ap_ies_dissector_table, align 8
  %8 = load i32, ptr @proto_e2ap, align 4
  %9 = tail call ptr @register_dissector_table(ptr noundef nonnull @.str.1856, ptr noundef nonnull @.str.1857, i32 noundef %8, i32 noundef 7, i32 noundef 1)
  store ptr %9, ptr @e2ap_extension_dissector_table, align 8
  %10 = load i32, ptr @proto_e2ap, align 4
  %11 = tail call ptr @register_dissector_table(ptr noundef nonnull @.str.4, ptr noundef nonnull @.str.1858, i32 noundef %10, i32 noundef 7, i32 noundef 1)
  store ptr %11, ptr @e2ap_proc_imsg_dissector_table, align 8
  %12 = load i32, ptr @proto_e2ap, align 4
  %13 = tail call ptr @register_dissector_table(ptr noundef nonnull @.str.5, ptr noundef nonnull @.str.1859, i32 noundef %12, i32 noundef 7, i32 noundef 1)
  store ptr %13, ptr @e2ap_proc_sout_dissector_table, align 8
  %14 = load i32, ptr @proto_e2ap, align 4
  %15 = tail call ptr @register_dissector_table(ptr noundef nonnull @.str.6, ptr noundef nonnull @.str.1860, i32 noundef %14, i32 noundef 7, i32 noundef 1)
  store ptr %15, ptr @e2ap_proc_uout_dissector_table, align 8
  %16 = load i32, ptr @proto_e2ap, align 4
  %17 = tail call ptr @register_dissector_table(ptr noundef nonnull @.str.1861, ptr noundef nonnull @.str.1862, i32 noundef %16, i32 noundef 26, i32 noundef 0)
  store ptr %17, ptr @e2ap_n2_ie_type_dissector_table, align 8
  %18 = load i32, ptr @proto_e2ap, align 4
  %19 = tail call ptr @prefs_register_protocol(i32 noundef %18, ptr noundef null)
  tail call void @prefs_register_enum_preference(ptr noundef %19, ptr noundef nonnull @.str.1867, ptr noundef nonnull @.str.1868, ptr noundef nonnull @.str.1869, ptr noundef nonnull @e2ap_rc_version_pref_choice, ptr noundef nonnull @proto_register_e2ap.rc_version_vals, i1 noundef zeroext true)
  tail call void @register_init_routine(ptr noundef nonnull @e2ap_init_protocol)
  %20 = tail call i32 @register_tap(ptr noundef nonnull @.str.50)
  store i32 %20, ptr @e2ap_tap, align 4
  ret void
}